target datalayout = "e-m:e-p270:32:32-p271:32:32-p272:64:64-i64:64-i128:128-f80:128-n8:16:32:64-S128"
target triple = "x86_64-unknown-linux-gnu"

module asm ".section \22.export_symbol\22,\22a\22 ; __export_symbol_int_pow: ; .asciz \22GPL\22 ; .asciz \22\22 ; .balign 8 ; .quad int_pow ; .previous"

@__UNIQUE_ID___addressable_int_pow0 = internal global ptr @int_pow, section ".discard.addressable", align 8
@llvm.compiler.used = appending global [1 x ptr] [ptr @__UNIQUE_ID___addressable_int_pow0], section "llvm.metadata"

; Function Attrs: fn_ret_thunk_extern nofree norecurse nosync nounwind null_pointer_is_valid memory(none)
define dso_local i64 @int_pow(i64 noundef %0, i32 noundef %1) #0 align 16 {
  %3 = icmp eq i32 %1, 0
  br i1 %3, label %15, label %4

4:                                                ; preds = %4, %2
  %5 = phi i64 [ %11, %4 ], [ 1, %2 ]
  %6 = phi i32 [ %12, %4 ], [ %1, %2 ]
  %7 = phi i64 [ %13, %4 ], [ %0, %2 ]
  %8 = and i32 %6, 1
  %9 = icmp eq i32 %8, 0
  %10 = select i1 %9, i64 1, i64 %7
  %11 = mul i64 %10, %5
  %12 = lshr i32 %6, 1
  %13 = mul i64 %7, %7
  %14 = icmp ult i32 %6, 2
  br i1 %14, label %15, label %4, !llvm.loop !5

15:                                               ; preds = %4, %2
  %16 = phi i64 [ 1, %2 ], [ %11, %4 ]
  ret i64 %16
}


!llvm.module.flags = !{!0, !1, !2, !3, !4}

!0 = !{i32 1, !"wchar_size", i32 2}
!1 = !{i32 8, !"cf-protection-branch", i32 1}
!2 = !{i32 4, !"function_return_thunk_extern", i32 1}
!3 = !{i32 4, !"indirect_branch_cs_prefix", i32 1}
!4 = !{i32 4, !"SkipRaxSetup", i32 1}
!5 = distinct !{!5, !6, !7}
!6 = !{!"llvm.loop.mustprogress"}
!7 = !{!"llvm.loop.unroll.disable"}
